; Function Attrs: nounwind uwtable
define ptr @l_Array_foldlMUnsafe_fold___at_Lake_mkRBArray___spec__1___rarg(ptr noundef %0, ptr noundef %1, ptr noundef readonly captures(none) %2, i64 noundef %3, i64 noundef %4, ptr noundef %5) local_unnamed_addr #0 {
  %.not52 = icmp eq i64 %3, %4
  br i1 %.not52, label %.._crit_edge_crit_edge, label %.lr.ph

.._crit_edge_crit_edge:                           ; preds = %6
  %.pre = ptrtoint ptr %1 to i64
  %.pre55 = and i64 %.pre, 1
  br label %._crit_edge

.lr.ph:                                           ; preds = %6
  %7 = getelementptr inbounds nuw i8, ptr %2, i64 24
  %8 = ptrtoint ptr %1 to i64
  %9 = and i64 %8, 1
  %.not49 = icmp eq i64 %9, 0
  %10 = ptrtoint ptr %0 to i64
  %11 = and i64 %10, 1
  %.not51 = icmp eq i64 %11, 0
  br label %12

12:                                               ; preds = %.lr.ph, %lean_dec.exit
  %.02354 = phi i64 [ %3, %.lr.ph ], [ %59, %lean_dec.exit ]
  %.02553 = phi ptr [ %5, %.lr.ph ], [ %58, %lean_dec.exit ]
  %13 = getelementptr inbounds nuw [0 x ptr], ptr %7, i64 0, i64 %.02354
  %14 = load ptr, ptr %13, align 8, !tbaa !4
  %15 = ptrtoint ptr %14 to i64
  %16 = and i64 %15, 1
  %.not.i32 = icmp eq i64 %16, 0
  br i1 %.not.i32, label %17, label %lean_array_uget.exit

17:                                               ; preds = %12
  %.val.i.i = load i32, ptr %14, align 4, !tbaa !8
  %18 = icmp sgt i32 %.val.i.i, 0
  br i1 %18, label %19, label %21, !prof !13

19:                                               ; preds = %17
  %20 = add nuw i32 %.val.i.i, 1
  store i32 %20, ptr %14, align 4, !tbaa !8
  br label %lean_array_uget.exit

21:                                               ; preds = %17
  %.not.i.i = icmp eq i32 %.val.i.i, 0
  br i1 %.not.i.i, label %lean_array_uget.exit, label %22

22:                                               ; preds = %21
  tail call void @lean_inc_ref_cold(ptr noundef nonnull %14) #4
  br label %lean_array_uget.exit

lean_array_uget.exit:                             ; preds = %12, %19, %21, %22
  br i1 %.not49, label %23, label %lean_inc.exit29

23:                                               ; preds = %lean_array_uget.exit
  %.val.i = load i32, ptr %1, align 4, !tbaa !8
  %24 = icmp sgt i32 %.val.i, 0
  br i1 %24, label %25, label %27, !prof !13

25:                                               ; preds = %23
  %26 = add nuw i32 %.val.i, 1
  store i32 %26, ptr %1, align 4, !tbaa !8
  br label %lean_inc.exit29

27:                                               ; preds = %23
  %.not.i33 = icmp eq i32 %.val.i, 0
  br i1 %.not.i33, label %lean_inc.exit29, label %28

28:                                               ; preds = %27
  tail call void @lean_inc_ref_cold(ptr noundef nonnull %1) #4
  br label %lean_inc.exit29

lean_inc.exit29:                                  ; preds = %28, %27, %25, %lean_array_uget.exit
  br i1 %.not.i32, label %29, label %lean_inc.exit28

29:                                               ; preds = %lean_inc.exit29
  %.val.i34 = load i32, ptr %14, align 4, !tbaa !8
  %30 = icmp sgt i32 %.val.i34, 0
  br i1 %30, label %31, label %33, !prof !13

31:                                               ; preds = %29
  %32 = add nuw i32 %.val.i34, 1
  store i32 %32, ptr %14, align 4, !tbaa !8
  br label %lean_inc.exit28

33:                                               ; preds = %29
  %.not.i35 = icmp eq i32 %.val.i34, 0
  br i1 %.not.i35, label %lean_inc.exit28, label %34

34:                                               ; preds = %33
  tail call void @lean_inc_ref_cold(ptr noundef nonnull %14) #4
  br label %lean_inc.exit28

lean_inc.exit28:                                  ; preds = %34, %33, %31, %lean_inc.exit29
  %35 = tail call ptr @lean_apply_1(ptr noundef %1, ptr noundef %14) #4
  br i1 %.not51, label %36, label %lean_dec.exit

36:                                               ; preds = %lean_inc.exit28
  %.val.i37 = load i32, ptr %0, align 4, !tbaa !8
  %37 = icmp sgt i32 %.val.i37, 0
  br i1 %37, label %38, label %40, !prof !13

38:                                               ; preds = %36
  %39 = add nuw i32 %.val.i37, 1
  store i32 %39, ptr %0, align 4, !tbaa !8
  br label %lean_dec.exit

40:                                               ; preds = %36
  %.not.i38 = icmp eq i32 %.val.i37, 0
  br i1 %.not.i38, label %lean_dec.exit, label %41

41:                                               ; preds = %40
  tail call void @lean_inc_ref_cold(ptr noundef nonnull %0) #4
  br label %lean_dec.exit

._crit_edge:                                      ; preds = %lean_dec.exit, %.._crit_edge_crit_edge
  %.pre-phi56 = phi i64 [ %.pre55, %.._crit_edge_crit_edge ], [ %9, %lean_dec.exit ]
  %.025.lcssa = phi ptr [ %5, %.._crit_edge_crit_edge ], [ %58, %lean_dec.exit ]
  %.not47 = icmp eq i64 %.pre-phi56, 0
  br i1 %.not47, label %42, label %lean_dec.exit27

42:                                               ; preds = %._crit_edge
  %43 = load i32, ptr %1, align 4, !tbaa !8
  %44 = icmp sgt i32 %43, 1
  br i1 %44, label %45, label %47, !prof !13

45:                                               ; preds = %42
  %46 = add nsw i32 %43, -1
  store i32 %46, ptr %1, align 4, !tbaa !8
  br label %lean_dec.exit27

47:                                               ; preds = %42
  %.not.i = icmp eq i32 %43, 0
  br i1 %.not.i, label %lean_dec.exit27, label %48

48:                                               ; preds = %47
  tail call void @lean_dec_ref_cold(ptr noundef nonnull %1) #4
  br label %lean_dec.exit27

lean_dec.exit27:                                  ; preds = %48, %47, %45, %._crit_edge
  %49 = ptrtoint ptr %0 to i64
  %50 = and i64 %49, 1
  %.not48 = icmp eq i64 %50, 0
  br i1 %.not48, label %51, label %60

51:                                               ; preds = %lean_dec.exit27
  %52 = load i32, ptr %0, align 4, !tbaa !8
  %53 = icmp sgt i32 %52, 1
  br i1 %53, label %54, label %56, !prof !13

54:                                               ; preds = %51
  %55 = add nsw i32 %52, -1
  store i32 %55, ptr %0, align 4, !tbaa !8
  br label %60

56:                                               ; preds = %51
  %.not.i30 = icmp eq i32 %52, 0
  br i1 %.not.i30, label %60, label %57

57:                                               ; preds = %56
  tail call void @lean_dec_ref_cold(ptr noundef nonnull %0) #4
  br label %60

lean_dec.exit:                                    ; preds = %lean_inc.exit28, %38, %40, %41
  %58 = tail call ptr @l_Lake_RBArray_insert___rarg(ptr noundef %0, ptr noundef %.02553, ptr noundef %35, ptr noundef %14)
  %59 = add i64 %.02354, 1
  %.not = icmp eq i64 %59, %4
  br i1 %.not, label %._crit_edge, label %12

60:                                               ; preds = %57, %56, %54, %lean_dec.exit27
  ret ptr %.025.lcssa
}